(cnumpy.core.multiarray
_reconstruct
p0
(cnumpy
ndarray
p1
(I0
tp2
S'b'
p3
tp4
Rp5
(I1
(I2
tp6
cnumpy
dtype
p7
(S'f8'
p8
I0
I1
tp9
Rp10
(I3
S'<'
p11
NNNI-1
I-1
I0
tp12
bI00
S'\x14\xf7K\xb2$\x05\xe7\xbfoM\xb0bt8\xf1?'
p13
tp14
bg0
(g1
(I0
tp15
g3
tp16
Rp17
(I1
(I2
I2
tp18
g10
I01
S'\xa1\x07i\xdbu2@?\x81\xd2B4\xeb\x960\xbf\x81\xd2B4\xeb\x960\xbf\xfcz6\xc8!*C?'
p19
tp20
btp21
.