(cnumpy.core.multiarray
_reconstruct
p0
(cnumpy
ndarray
p1
(I0
tp2
S'b'
p3
tp4
Rp5
(I1
(I2
tp6
cnumpy
dtype
p7
(S'f8'
p8
I0
I1
tp9
Rp10
(I3
S'<'
p11
NNNI-1
I-1
I0
tp12
bI00
S'\xe6\xdb\x1b\xd6\xe5\xae\xe8\xbf\x11ZF\xc1\x81Q\xf0?'
p13
tp14
bg0
(g1
(I0
tp15
g3
tp16
Rp17
(I1
(I2
I2
tp18
g10
I01
S'/5Wa\x9f79?$\x12]\xfc~k2\xbf$\x12]\xfc~k2\xbf\xa7S\x80X\x85\xdbE?'
p19
tp20
btp21
.