(cnumpy.core.multiarray
_reconstruct
p0
(cnumpy
ndarray
p1
(I0
tp2
S'b'
p3
tp4
Rp5
(I1
(I2
tp6
cnumpy
dtype
p7
(S'f8'
p8
I0
I1
tp9
Rp10
(I3
S'<'
p11
NNNI-1
I-1
I0
tp12
bI00
S'\xb1Xmr\x89\xac\xe7\xbf\x13\xa1\xec6\xe5K\xf0?'
p13
tp14
bg0
(g1
(I0
tp15
g3
tp16
Rp17
(I1
(I2
I2
tp18
g10
I01
S"\xdfV\xd5\xfaR\xe1!?[!j\xa48P\x12\xbf[!j\xa48P\x12\xbf<\x7fh \xef'%?"
p19
tp20
btp21
.