(cnumpy.core.multiarray
_reconstruct
p0
(cnumpy
ndarray
p1
(I0
tp2
S'b'
p3
tp4
Rp5
(I1
(I2
tp6
cnumpy
dtype
p7
(S'f8'
p8
I0
I1
tp9
Rp10
(I3
S'<'
p11
NNNI-1
I-1
I0
tp12
bI00
S'o\x99\xd8\x9ek(\xe6\xbf\xb3_$k\x8c9\xe8?'
p13
tp14
bg0
(g1
(I0
tp15
g3
tp16
Rp17
(I1
(I2
I2
tp18
g10
I01
S'\x94.\xe3v\x02+8?\xefa:\xd0I\xa71\xbf\xefa:\xd0I\xa71\xbfu\x9cy5\xb2\xf2D?'
p19
tp20
btp21
.