(cnumpy.core.multiarray
_reconstruct
p0
(cnumpy
ndarray
p1
(I0
tp2
S'b'
p3
tp4
Rp5
(I1
(I2
tp6
cnumpy
dtype
p7
(S'f8'
p8
I0
I1
tp9
Rp10
(I3
S'<'
p11
NNNI-1
I-1
I0
tp12
bI00
S'O\xbe\xc1p\xc9\x82\xe9\xbf\x14x"@s\xed\xf3?'
p13
tp14
bg0
(g1
(I0
tp15
g3
tp16
Rp17
(I1
(I2
I2
tp18
g10
I01
S'Pw\xe9\xac"\xa8d?G\x03\n\xf5@(U\xbfG\x03\n\xf5@(U\xbf\xe5\xdb^\x0f\xf9ph?'
p19
tp20
btp21
.